target datalayout = "e-m:e-p270:32:32-p271:32:32-p272:64:64-i64:64-i128:128-f80:128-n8:16:32:64-S128"
target triple = "x86_64-unknown-linux-gnu"

%struct.USBPortOps = type { ptr, ptr, ptr, ptr, ptr }
%struct.EHCIState = type { %struct.USBBus, ptr, ptr, %struct.MemoryRegion, ptr, %struct.MemoryRegion, %struct.MemoryRegion, %struct.MemoryRegion, i32, i8, i16, i16, i16, i16, i32, [16 x i8], %union.anon.5, [6 x i32], ptr, ptr, i8, i32, i32, [6 x %struct.USBPort], [6 x ptr], i32, i32, %union.EHCIQueueHead, %union.EHCIQueueHead, i32, i32, %struct.USBPacket, %struct.QEMUSGList, i64, i32, i32, i8, ptr }
%struct.USBBus = type { %struct.BusState, ptr, i32, i32, i32, %union.anon, %union.anon.0, %union.anon.1 }
%struct.BusState = type { %struct.Object, ptr, ptr, ptr, i32, i8, i8, i32, %union.BusChildHead, %struct.BusStateEntry, %struct.ResettableState }
%struct.Object = type { ptr, ptr, ptr, i32, ptr }
%union.BusChildHead = type { %struct.QTailQLink }
%struct.QTailQLink = type { ptr, ptr }
%struct.BusStateEntry = type { ptr, ptr }
%struct.ResettableState = type { i32, i8, i8 }
%union.anon = type { %struct.QTailQLink }
%union.anon.0 = type { %struct.QTailQLink }
%union.anon.1 = type { %struct.QTailQLink }
%struct.MemoryRegion = type { %struct.Object, i8, i8, i8, i8, i8, i8, i8, i8, i8, i8, ptr, ptr, ptr, ptr, ptr, ptr, i32, i128, i64, ptr, i64, i8, i8, i8, i8, i8, ptr, i64, i32, %union.anon.2, %union.anon.3, %union.anon.4, ptr, i32, ptr, ptr, i8 }
%union.anon.2 = type { %struct.QTailQLink }
%union.anon.3 = type { %struct.QTailQLink }
%union.anon.4 = type { %struct.QTailQLink }
%union.anon.5 = type { [17 x i32] }
%struct.USBPort = type { ptr, i32, i32, [16 x i8], ptr, ptr, i32, %union.anon.6 }
%union.anon.6 = type { %struct.QTailQLink }
%union.EHCIQueueHead = type { %struct.QTailQLink }
%struct.USBPacket = type { i32, i64, ptr, i32, %struct.QEMUIOVector, i64, i8, i8, i32, i32, i32, ptr, %union.anon.10, %union.anon.11 }
%struct.QEMUIOVector = type { ptr, i32, %union.anon.7 }
%union.anon.7 = type { %struct.anon.8 }
%struct.anon.8 = type { i32, %struct.iovec }
%struct.iovec = type { ptr, i64 }
%union.anon.10 = type { %struct.QTailQLink }
%union.anon.11 = type { %struct.QTailQLink }
%struct.QEMUSGList = type { ptr, i32, i32, i64, ptr, ptr }
%struct.EHCIQueue = type { ptr, %union.anon.16, i32, i64, i32, i32, %struct.EHCIqh, i32, i32, i32, ptr, %union.anon.17 }
%union.anon.16 = type { %struct.QTailQLink }
%struct.EHCIqh = type { i32, i32, i32, i32, i32, i32, i32, [5 x i32] }
%union.anon.17 = type { %struct.QTailQLink }
%struct.timeval = type { i64, i64 }
%struct.EHCIPacket = type { ptr, %union.anon.18, %struct.EHCIqtd, i32, %struct.USBPacket, %struct.QEMUSGList, i32, i32 }
%union.anon.18 = type { %struct.QTailQLink }
%struct.EHCIqtd = type { i32, i32, i32, [5 x i32] }

@.str.24 = private unnamed_addr constant [26 x i8] c"../qemu/hw/usb/hcd-ehci.c\00", align 1
@trace_events_enabled_count = external global i32, align 4
@message_with_timestamp = external global i8, align 1
@qemu_loglevel = external global i32, align 4
@_TRACE_USB_EHCI_PACKET_ACTION_DSTATE = external global i16, align 2
@.str.86 = private unnamed_addr constant [51 x i8] c"%d@%zu.%06zu:usb_ehci_packet_action q %p p %p: %s\0A\00", align 1
@.str.87 = private unnamed_addr constant [38 x i8] c"usb_ehci_packet_action q %p p %p: %s\0A\00", align 1
@.str.99 = private unnamed_addr constant [32 x i8] c"p->async == EHCI_ASYNC_INFLIGHT\00", align 1
@__PRETTY_FUNCTION__.ehci_async_complete_packet = private unnamed_addr constant [56 x i8] c"void ehci_async_complete_packet(USBPort *, USBPacket *)\00", align 1
@.str.100 = private unnamed_addr constant [7 x i8] c"remove\00", align 1
@.str.101 = private unnamed_addr constant [7 x i8] c"wakeup\00", align 1

; Function Attrs: nounwind sspstrong uwtable
define internal zeroext i1 @qemu_loglevel_mask(i32 noundef %mask) #0 {
entry:
  %mask.addr = alloca i32, align 4
  store i32 %mask, ptr %mask.addr, align 4
  %0 = load i32, ptr @qemu_loglevel, align 4
  %1 = load i32, ptr %mask.addr, align 4
  %and = and i32 %0, %1
  %cmp = icmp ne i32 %and, 0
  ret i1 %cmp
}

; Function Attrs: nounwind sspstrong uwtable
define internal void @_nocheck__trace_usb_ehci_packet_action(ptr noundef %q, ptr noundef %p, ptr noundef %action) #0 {
entry:
  %q.addr = alloca ptr, align 8
  %p.addr = alloca ptr, align 8
  %action.addr = alloca ptr, align 8
  %_now = alloca %struct.timeval, align 8
  store ptr %q, ptr %q.addr, align 8
  store ptr %p, ptr %p.addr, align 8
  store ptr %action, ptr %action.addr, align 8
  %0 = load i32, ptr @trace_events_enabled_count, align 4
  %tobool = icmp ne i32 %0, 0
  %lnot = xor i1 %tobool, true
  %lnot1 = xor i1 %lnot, true
  %lnot.ext = zext i1 %lnot1 to i32
  %conv = sext i32 %lnot.ext to i64
  %tobool2 = icmp ne i64 %conv, 0
  br i1 %tobool2, label %land.lhs.true, label %if.end11

land.lhs.true:                                    ; preds = %entry
  %1 = load i16, ptr @_TRACE_USB_EHCI_PACKET_ACTION_DSTATE, align 2
  %conv3 = zext i16 %1 to i32
  %tobool4 = icmp ne i32 %conv3, 0
  br i1 %tobool4, label %land.lhs.true5, label %if.end11

land.lhs.true5:                                   ; preds = %land.lhs.true
  %call = call zeroext i1 @qemu_loglevel_mask(i32 noundef 32768)
  br i1 %call, label %if.then, label %if.end11

if.then:                                          ; preds = %land.lhs.true5
  %2 = load i8, ptr @message_with_timestamp, align 1
  %tobool7 = trunc i8 %2 to i1
  br i1 %tobool7, label %if.then8, label %if.else

if.then8:                                         ; preds = %if.then
  %call9 = call i32 @gettimeofday(ptr noundef %_now, ptr noundef null) #10
  %call10 = call i32 @qemu_get_thread_id()
  %tv_sec = getelementptr inbounds %struct.timeval, ptr %_now, i32 0, i32 0
  %3 = load i64, ptr %tv_sec, align 8
  %tv_usec = getelementptr inbounds %struct.timeval, ptr %_now, i32 0, i32 1
  %4 = load i64, ptr %tv_usec, align 8
  %5 = load ptr, ptr %q.addr, align 8
  %6 = load ptr, ptr %p.addr, align 8
  %7 = load ptr, ptr %action.addr, align 8
  call void (ptr, ...) @qemu_log(ptr noundef @.str.86, i32 noundef %call10, i64 noundef %3, i64 noundef %4, ptr noundef %5, ptr noundef %6, ptr noundef %7)
  br label %if.end

if.else:                                          ; preds = %if.then
  %8 = load ptr, ptr %q.addr, align 8
  %9 = load ptr, ptr %p.addr, align 8
  %10 = load ptr, ptr %action.addr, align 8
  call void (ptr, ...) @qemu_log(ptr noundef @.str.87, ptr noundef %8, ptr noundef %9, ptr noundef %10)
  br label %if.end

if.end:                                           ; preds = %if.else, %if.then8
  br label %if.end11

if.end11:                                         ; preds = %if.end, %land.lhs.true5, %land.lhs.true, %entry
  ret void
}

; Function Attrs: nounwind sspstrong uwtable
define internal void @trace_usb_ehci_packet_action(ptr noundef %q, ptr noundef %p, ptr noundef %action) #0 {
entry:
  %q.addr = alloca ptr, align 8
  %p.addr = alloca ptr, align 8
  %action.addr = alloca ptr, align 8
  store ptr %q, ptr %q.addr, align 8
  store ptr %p, ptr %p.addr, align 8
  store ptr %action, ptr %action.addr, align 8
  %0 = load ptr, ptr %q.addr, align 8
  %1 = load ptr, ptr %p.addr, align 8
  %2 = load ptr, ptr %action.addr, align 8
  call void @_nocheck__trace_usb_ehci_packet_action(ptr noundef %0, ptr noundef %1, ptr noundef %2)
  ret void
}

; Function Attrs: nounwind sspstrong uwtable
define internal void @ehci_async_complete_packet(ptr noundef %port, ptr noundef %packet) #0 {
entry:
  %port.addr = alloca ptr, align 8
  %packet.addr = alloca ptr, align 8
  %p = alloca ptr, align 8
  %s = alloca ptr, align 8
  %portsc = alloca i32, align 4
  %companion = alloca ptr, align 8
  %__mptr = alloca ptr, align 8
  %tmp = alloca ptr, align 8
  store ptr %port, ptr %port.addr, align 8
  store ptr %packet, ptr %packet.addr, align 8
  %0 = load ptr, ptr %port.addr, align 8
  %opaque = getelementptr inbounds %struct.USBPort, ptr %0, i32 0, i32 5
  %1 = load ptr, ptr %opaque, align 8
  store ptr %1, ptr %s, align 8
  %2 = load ptr, ptr %s, align 8
  %portsc1 = getelementptr inbounds %struct.EHCIState, ptr %2, i32 0, i32 17
  %3 = load ptr, ptr %port.addr, align 8
  %index = getelementptr inbounds %struct.USBPort, ptr %3, i32 0, i32 6
  %4 = load i32, ptr %index, align 8
  %idxprom = sext i32 %4 to i64
  %arrayidx = getelementptr [6 x i32], ptr %portsc1, i64 0, i64 %idxprom
  %5 = load i32, ptr %arrayidx, align 4
  store i32 %5, ptr %portsc, align 4
  %6 = load i32, ptr %portsc, align 4
  %and = and i32 %6, 8192
  %tobool = icmp ne i32 %and, 0
  br i1 %tobool, label %if.then, label %if.end

if.then:                                          ; preds = %entry
  %7 = load ptr, ptr %s, align 8
  %companion_ports = getelementptr inbounds %struct.EHCIState, ptr %7, i32 0, i32 24
  %8 = load ptr, ptr %port.addr, align 8
  %index2 = getelementptr inbounds %struct.USBPort, ptr %8, i32 0, i32 6
  %9 = load i32, ptr %index2, align 8
  %idxprom3 = sext i32 %9 to i64
  %arrayidx4 = getelementptr [6 x ptr], ptr %companion_ports, i64 0, i64 %idxprom3
  %10 = load ptr, ptr %arrayidx4, align 8
  store ptr %10, ptr %companion, align 8
  %11 = load ptr, ptr %companion, align 8
  %ops = getelementptr inbounds %struct.USBPort, ptr %11, i32 0, i32 4
  %12 = load ptr, ptr %ops, align 8
  %complete = getelementptr inbounds %struct.USBPortOps, ptr %12, i32 0, i32 4
  %13 = load ptr, ptr %complete, align 8
  %14 = load ptr, ptr %companion, align 8
  %15 = load ptr, ptr %packet.addr, align 8
  call void %13(ptr noundef %14, ptr noundef %15)
  br label %return

if.end:                                           ; preds = %entry
  %16 = load ptr, ptr %packet.addr, align 8
  store ptr %16, ptr %__mptr, align 8
  %17 = load ptr, ptr %__mptr, align 8
  %add.ptr = getelementptr i8, ptr %17, i64 -64
  store ptr %add.ptr, ptr %tmp, align 8
  %18 = load ptr, ptr %tmp, align 8
  store ptr %18, ptr %p, align 8
  %19 = load ptr, ptr %p, align 8
  %async = getelementptr inbounds %struct.EHCIPacket, ptr %19, i32 0, i32 7
  %20 = load i32, ptr %async, align 4
  %cmp = icmp eq i32 %20, 2
  br i1 %cmp, label %if.then5, label %if.else

if.then5:                                         ; preds = %if.end
  br label %if.end6

if.else:                                          ; preds = %if.end
  call void @__assert_fail(ptr noundef @.str.99, ptr noundef @.str.24, i32 noundef 1249, ptr noundef @__PRETTY_FUNCTION__.ehci_async_complete_packet) #12
  unreachable

if.end6:                                          ; preds = %if.then5
  %21 = load ptr, ptr %packet.addr, align 8
  %status = getelementptr inbounds %struct.USBPacket, ptr %21, i32 0, i32 8
  %22 = load i32, ptr %status, align 4
  %cmp7 = icmp eq i32 %22, -8
  br i1 %cmp7, label %if.then8, label %if.end9

if.then8:                                         ; preds = %if.end6
  %23 = load ptr, ptr %p, align 8
  %queue = getelementptr inbounds %struct.EHCIPacket, ptr %23, i32 0, i32 0
  %24 = load ptr, ptr %queue, align 8
  %25 = load ptr, ptr %p, align 8
  call void @trace_usb_ehci_packet_action(ptr noundef %24, ptr noundef %25, ptr noundef @.str.100)
  %26 = load ptr, ptr %p, align 8
  call void @ehci_free_packet(ptr noundef %26)
  br label %return

if.end9:                                          ; preds = %if.end6
  %27 = load ptr, ptr %p, align 8
  %queue10 = getelementptr inbounds %struct.EHCIPacket, ptr %27, i32 0, i32 0
  %28 = load ptr, ptr %queue10, align 8
  %29 = load ptr, ptr %p, align 8
  call void @trace_usb_ehci_packet_action(ptr noundef %28, ptr noundef %29, ptr noundef @.str.101)
  %30 = load ptr, ptr %p, align 8
  %async11 = getelementptr inbounds %struct.EHCIPacket, ptr %30, i32 0, i32 7
  store i32 3, ptr %async11, align 4
  %31 = load ptr, ptr %p, align 8
  %queue12 = getelementptr inbounds %struct.EHCIPacket, ptr %31, i32 0, i32 0
  %32 = load ptr, ptr %queue12, align 8
  %async13 = getelementptr inbounds %struct.EHCIQueue, ptr %32, i32 0, i32 4
  %33 = load i32, ptr %async13, align 8
  %tobool14 = icmp ne i32 %33, 0
  br i1 %tobool14, label %if.end16, label %if.then15

if.then15:                                        ; preds = %if.end9
  %34 = load ptr, ptr %s, align 8
  %periodic_sched_active = getelementptr inbounds %struct.EHCIState, ptr %34, i32 0, i32 35
  store i32 512, ptr %periodic_sched_active, align 4
  br label %if.end16

if.end16:                                         ; preds = %if.then15, %if.end9
  %35 = load ptr, ptr %s, align 8
  %async_bh = getelementptr inbounds %struct.EHCIState, ptr %35, i32 0, i32 19
  %36 = load ptr, ptr %async_bh, align 8
  call void @qemu_bh_schedule(ptr noundef %36)
  br label %return

return:                                           ; preds = %if.end16, %if.then8, %if.then
  ret void
}