; Function Attrs: nounwind sspstrong uwtable
define internal void @ehci_async_complete_packet(ptr noundef readonly captures(none) %port, ptr noundef %packet) #0 {
entry:
  %_now.i.i16 = alloca %struct.timeval, align 8
  %_now.i.i = alloca %struct.timeval, align 8
  %opaque = getelementptr inbounds nuw i8, ptr %port, i64 40
  %0 = load ptr, ptr %opaque, align 8
  %portsc1 = getelementptr inbounds nuw i8, ptr %0, i64 1416
  %index = getelementptr inbounds nuw i8, ptr %port, i64 48
  %1 = load i32, ptr %index, align 8
  %idxprom = sext i32 %1 to i64
  %arrayidx = getelementptr [6 x i32], ptr %portsc1, i64 0, i64 %idxprom
  %2 = load i32, ptr %arrayidx, align 4
  %and = and i32 %2, 8192
  %tobool.not = icmp eq i32 %and, 0
  br i1 %tobool.not, label %if.end, label %if.then

if.then:                                          ; preds = %entry
  %companion_ports = getelementptr inbounds nuw i8, ptr %0, i64 1904
  %arrayidx4 = getelementptr [6 x ptr], ptr %companion_ports, i64 0, i64 %idxprom
  %3 = load ptr, ptr %arrayidx4, align 8
  %ops = getelementptr inbounds nuw i8, ptr %3, i64 32
  %4 = load ptr, ptr %ops, align 8
  %complete = getelementptr inbounds nuw i8, ptr %4, i64 32
  %5 = load ptr, ptr %complete, align 8
  tail call void %5(ptr noundef %3, ptr noundef %packet) #17
  br label %return

if.end:                                           ; preds = %entry
  %add.ptr = getelementptr i8, ptr %packet, i64 -64
  %async = getelementptr i8, ptr %packet, i64 180
  %6 = load i32, ptr %async, align 4
  %cmp = icmp eq i32 %6, 2
  br i1 %cmp, label %if.end6, label %if.else

if.else:                                          ; preds = %if.end
  tail call void @__assert_fail(ptr noundef nonnull @.str.99, ptr noundef nonnull @.str.24, i32 noundef 1249, ptr noundef nonnull @__PRETTY_FUNCTION__.ehci_async_complete_packet) #20
  unreachable

if.end6:                                          ; preds = %if.end
  %status = getelementptr inbounds nuw i8, ptr %packet, i64 84
  %7 = load i32, ptr %status, align 4
  %cmp7 = icmp eq i32 %7, -8
  %8 = load ptr, ptr %add.ptr, align 8
  br i1 %cmp7, label %if.then8, label %if.end9

if.then8:                                         ; preds = %if.end6
  call void @llvm.lifetime.start.p0(i64 16, ptr nonnull %_now.i.i)
  %9 = load i32, ptr @trace_events_enabled_count, align 4
  %tobool.i.i = icmp ne i32 %9, 0
  %10 = load i16, ptr @_TRACE_USB_EHCI_PACKET_ACTION_DSTATE, align 2
  %tobool4.i.i = icmp ne i16 %10, 0
  %or.cond.i.i = select i1 %tobool.i.i, i1 %tobool4.i.i, i1 false
  br i1 %or.cond.i.i, label %land.lhs.true5.i.i, label %trace_usb_ehci_packet_action.exit

land.lhs.true5.i.i:                               ; preds = %if.then8
  %11 = load i32, ptr @qemu_loglevel, align 4
  %and.i.i.i = and i32 %11, 32768
  %cmp.i.not.i.i = icmp eq i32 %and.i.i.i, 0
  br i1 %cmp.i.not.i.i, label %trace_usb_ehci_packet_action.exit, label %if.then.i.i

if.then.i.i:                                      ; preds = %land.lhs.true5.i.i
  %12 = load i8, ptr @message_with_timestamp, align 1
  %tobool7.i.i = trunc i8 %12 to i1
  br i1 %tobool7.i.i, label %if.then8.i.i, label %if.else.i.i

if.then8.i.i:                                     ; preds = %if.then.i.i
  %call9.i.i = call i32 @gettimeofday(ptr noundef nonnull %_now.i.i, ptr noundef null) #17
  %call10.i.i = tail call i32 @qemu_get_thread_id() #17
  %13 = load i64, ptr %_now.i.i, align 8
  %tv_usec.i.i = getelementptr inbounds nuw i8, ptr %_now.i.i, i64 8
  %14 = load i64, ptr %tv_usec.i.i, align 8
  tail call void (ptr, ...) @qemu_log(ptr noundef nonnull @.str.86, i32 noundef %call10.i.i, i64 noundef %13, i64 noundef %14, ptr noundef %8, ptr noundef nonnull %add.ptr, ptr noundef nonnull @.str.100) #17
  br label %trace_usb_ehci_packet_action.exit

if.else.i.i:                                      ; preds = %if.then.i.i
  tail call void (ptr, ...) @qemu_log(ptr noundef nonnull @.str.87, ptr noundef %8, ptr noundef nonnull %add.ptr, ptr noundef nonnull @.str.100) #17
  br label %trace_usb_ehci_packet_action.exit

trace_usb_ehci_packet_action.exit:                ; preds = %if.then8, %land.lhs.true5.i.i, %if.then8.i.i, %if.else.i.i
  call void @llvm.lifetime.end.p0(i64 16, ptr nonnull %_now.i.i)
  tail call fastcc void @ehci_free_packet(ptr noundef nonnull %add.ptr)
  br label %return

if.end9:                                          ; preds = %if.end6
  call void @llvm.lifetime.start.p0(i64 16, ptr nonnull %_now.i.i16)
  %15 = load i32, ptr @trace_events_enabled_count, align 4
  %tobool.i.i17 = icmp ne i32 %15, 0
  %16 = load i16, ptr @_TRACE_USB_EHCI_PACKET_ACTION_DSTATE, align 2
  %tobool4.i.i18 = icmp ne i16 %16, 0
  %or.cond.i.i19 = select i1 %tobool.i.i17, i1 %tobool4.i.i18, i1 false
  br i1 %or.cond.i.i19, label %land.lhs.true5.i.i20, label %trace_usb_ehci_packet_action.exit30

land.lhs.true5.i.i20:                             ; preds = %if.end9
  %17 = load i32, ptr @qemu_loglevel, align 4
  %and.i.i.i21 = and i32 %17, 32768
  %cmp.i.not.i.i22 = icmp eq i32 %and.i.i.i21, 0
  br i1 %cmp.i.not.i.i22, label %trace_usb_ehci_packet_action.exit30, label %if.then.i.i23

if.then.i.i23:                                    ; preds = %land.lhs.true5.i.i20
  %18 = load i8, ptr @message_with_timestamp, align 1
  %tobool7.i.i24 = trunc i8 %18 to i1
  br i1 %tobool7.i.i24, label %if.then8.i.i26, label %if.else.i.i25

if.then8.i.i26:                                   ; preds = %if.then.i.i23
  %call9.i.i27 = call i32 @gettimeofday(ptr noundef nonnull %_now.i.i16, ptr noundef null) #17
  %call10.i.i28 = tail call i32 @qemu_get_thread_id() #17
  %19 = load i64, ptr %_now.i.i16, align 8
  %tv_usec.i.i29 = getelementptr inbounds nuw i8, ptr %_now.i.i16, i64 8
  %20 = load i64, ptr %tv_usec.i.i29, align 8
  tail call void (ptr, ...) @qemu_log(ptr noundef nonnull @.str.86, i32 noundef %call10.i.i28, i64 noundef %19, i64 noundef %20, ptr noundef %8, ptr noundef nonnull %add.ptr, ptr noundef nonnull @.str.101) #17
  br label %trace_usb_ehci_packet_action.exit30

if.else.i.i25:                                    ; preds = %if.then.i.i23
  tail call void (ptr, ...) @qemu_log(ptr noundef nonnull @.str.87, ptr noundef %8, ptr noundef nonnull %add.ptr, ptr noundef nonnull @.str.101) #17
  br label %trace_usb_ehci_packet_action.exit30

trace_usb_ehci_packet_action.exit30:              ; preds = %if.end9, %land.lhs.true5.i.i20, %if.then8.i.i26, %if.else.i.i25
  call void @llvm.lifetime.end.p0(i64 16, ptr nonnull %_now.i.i16)
  store i32 3, ptr %async, align 4
  %21 = load ptr, ptr %add.ptr, align 8
  %async13 = getelementptr inbounds nuw i8, ptr %21, i64 40
  %22 = load i32, ptr %async13, align 8
  %tobool14.not = icmp eq i32 %22, 0
  br i1 %tobool14.not, label %if.then15, label %if.end16

if.then15:                                        ; preds = %trace_usb_ehci_packet_action.exit30
  %periodic_sched_active = getelementptr inbounds nuw i8, ptr %0, i64 2188
  store i32 512, ptr %periodic_sched_active, align 4
  br label %if.end16

if.end16:                                         ; preds = %if.then15, %trace_usb_ehci_packet_action.exit30
  %async_bh = getelementptr inbounds nuw i8, ptr %0, i64 1448
  %23 = load ptr, ptr %async_bh, align 8
  tail call void @qemu_bh_schedule(ptr noundef %23) #17
  br label %return

return:                                           ; preds = %if.end16, %trace_usb_ehci_packet_action.exit, %if.then
  ret void
}